; Function Attrs: mustprogress nofree norecurse nosync nounwind willreturn memory(argmem: readwrite) uwtable
define internal noundef i32 @_ZN2cv12_GLOBAL__N_117opjSeekFromBufferElPNS_6detail15OpjMemoryBufferE(i64 noundef %0, ptr nocapture noundef %1) #11 {
  %3 = getelementptr inbounds i8, ptr %1, i64 16
  %4 = load i64, ptr %3, align 8
  %.sroa.speculated = tail call i64 @llvm.umin.i64(i64 %4, i64 %0)
  %5 = getelementptr inbounds i8, ptr %1, i64 8
  %6 = load ptr, ptr %5, align 8
  %7 = getelementptr inbounds i8, ptr %6, i64 %.sroa.speculated
  store ptr %7, ptr %1, align 8
  ret i32 1
}